; Function Attrs: mustprogress nounwind uwtable
define internal fastcc noundef zeroext i1 @_ZL17getSubRegForClassPKN4llvm19TargetRegisterClassERKNS_18TargetRegisterInfoERj(ptr noundef readonly %0, ptr nocapture noundef nonnull readonly align 8 dereferenceable(308) %1, ptr nocapture noundef nonnull writeonly align 4 dereferenceable(4) %2) unnamed_addr #0 {
  %4 = alloca %"class.llvm::TypeSize", align 8
  %5 = getelementptr inbounds nuw i8, ptr %1, i64 288
  %6 = load ptr, ptr %5, align 8
  %7 = getelementptr inbounds nuw i8, ptr %1, i64 272
  %8 = load ptr, ptr %7, align 8
  %9 = getelementptr inbounds nuw i8, ptr %1, i64 264
  %10 = load ptr, ptr %9, align 8
  %11 = ptrtoint ptr %8 to i64
  %12 = ptrtoint ptr %10 to i64
  %13 = sub i64 %11, %12
  %14 = lshr exact i64 %13, 3
  %15 = trunc i64 %14 to i32
  %16 = getelementptr inbounds nuw i8, ptr %1, i64 304
  %17 = load i32, ptr %16, align 8
  %18 = mul i32 %17, %15
  %19 = load ptr, ptr %0, align 8
  %20 = getelementptr inbounds nuw i8, ptr %19, i64 24
  %21 = load i16, ptr %20, align 8
  %22 = zext i16 %21 to i32
  %23 = add i32 %18, %22
  %24 = zext i32 %23 to i64
  %25 = getelementptr inbounds %"struct.llvm::TargetRegisterInfo::RegClassInfo", ptr %6, i64 %24
  %26 = load i32, ptr %25, align 4
  %27 = zext i32 %26 to i64
  store i64 %27, ptr %4, align 8
  %.sroa.2.0..sroa_idx = getelementptr inbounds i8, ptr %4, i64 8
  store i8 0, ptr %.sroa.2.0..sroa_idx, align 8
  %28 = call noundef i64 @_ZNK4llvm8TypeSizecvmEv(ptr noundef nonnull align 8 dereferenceable(9) %4) #24
  %29 = add i64 %28, -8
  %30 = call i64 @llvm.fshl.i64(i64 %29, i64 %29, i64 61)
  switch i64 %30, label %34 [
    i64 0, label %.sink.split
    i64 1, label %31
    i64 3, label %32
    i64 7, label %33
  ]

31:                                               ; preds = %3
  br label %.sink.split

32:                                               ; preds = %3
  %.not = icmp eq ptr %0, @_ZN4llvm7AArch6413FPR32RegClassE
  %. = select i1 %.not, i32 15, i32 16
  br label %.sink.split

33:                                               ; preds = %3
  br label %.sink.split

.sink.split:                                      ; preds = %32, %3, %33, %31
  %.sink = phi i32 [ 7, %31 ], [ 2, %33 ], [ 1, %3 ], [ %., %32 ]
  store i32 %.sink, ptr %2, align 4
  br label %34

34:                                               ; preds = %.sink.split, %3
  %.0 = phi i1 [ false, %3 ], [ true, %.sink.split ]
  ret i1 %.0
}